target datalayout = "e-m:e-p270:32:32-p271:32:32-p272:64:64-i64:64-i128:128-f80:128-n8:16:32:64-S128"
target triple = "x86_64-unknown-linux-gnu"

%"struct.std::_Vector_base" = type { %"struct.std::_Vector_base<std::unique_ptr<node::DataQueue::Entry>, std::allocator<std::unique_ptr<node::DataQueue::Entry>>>::_Vector_impl" }
%"struct.std::_Vector_base<std::unique_ptr<node::DataQueue::Entry>, std::allocator<std::unique_ptr<node::DataQueue::Entry>>>::_Vector_impl" = type { %"struct.std::_Vector_base<std::unique_ptr<node::DataQueue::Entry>, std::allocator<std::unique_ptr<node::DataQueue::Entry>>>::_Vector_impl_data" }
%"struct.std::_Vector_base<std::unique_ptr<node::DataQueue::Entry>, std::allocator<std::unique_ptr<node::DataQueue::Entry>>>::_Vector_impl_data" = type { ptr, ptr, ptr }
%"class.std::optional" = type { %"struct.std::_Optional_base" }
%"struct.std::_Optional_base" = type { %"struct.std::_Optional_payload" }
%"struct.std::_Optional_payload" = type { %"struct.std::_Optional_payload_base.base", [7 x i8] }
%"struct.std::_Optional_payload_base.base" = type <{ %"union.std::_Optional_payload_base<unsigned long>::_Storage", i8 }>
%"union.std::_Optional_payload_base<unsigned long>::_Storage" = type { i64 }
%"class.node::MemoryRetainer" = type { ptr }
%"struct.std::__detail::_Hash_node_base" = type { ptr }
%"struct.std::__detail::_Prime_rehash_policy" = type { float, i64 }
%"class.std::__weak_count" = type { ptr }
%"struct.std::__detail::_Identity" = type { i8 }
%"class.node::(anonymous namespace)::DataQueueImpl" = type { %"class.node::DataQueue", %"class.std::enable_shared_from_this.432", %"class.std::vector", i8, [7 x i8], %"class.std::optional", %"class.std::optional", i8, %"class.std::unordered_set.435" }
%"class.node::DataQueue" = type { %"class.node::MemoryRetainer" }
%"class.std::enable_shared_from_this.432" = type { %"class.std::weak_ptr.433" }
%"class.std::weak_ptr.433" = type { %"class.std::__weak_ptr.434" }
%"class.std::__weak_ptr.434" = type { ptr, %"class.std::__weak_count" }
%"class.std::vector" = type { %"struct.std::_Vector_base" }
%"class.std::unordered_set.435" = type { %"class.std::_Hashtable.436" }
%"class.std::_Hashtable.436" = type { ptr, i64, %"struct.std::__detail::_Hash_node_base", i64, %"struct.std::__detail::_Prime_rehash_policy", ptr }
%"struct.std::pair.584" = type <{ %"struct.std::__detail::_Node_iterator.582", i8, [7 x i8] }>
%"struct.std::__detail::_Node_iterator.582" = type { %"struct.std::__detail::_Node_iterator_base.583" }
%"struct.std::__detail::_Node_iterator_base.583" = type { ptr }
%"struct.std::__detail::_AllocNode" = type { ptr }

; Function Attrs: mustprogress nounwind uwtable
define linkonce_odr dso_local noundef nonnull align 8 dereferenceable(8) ptr @_ZNSt10_HashtableIPN4node9DataQueue20BackpressureListenerES3_SaIS3_ENSt8__detail9_IdentityESt8equal_toIS3_ESt4hashIS3_ENS5_18_Mod_range_hashingENS5_20_Default_ranged_hashENS5_20_Prime_rehash_policyENS5_17_Hashtable_traitsILb0ELb1ELb1EEEE14_S_forward_keyERKS3_(ptr noundef nonnull align 8 dereferenceable(8) %__k) #4 comdat align 2 {
entry:
  %__k.addr = alloca ptr, align 8
  store ptr %__k, ptr %__k.addr, align 8
  %0 = load ptr, ptr %__k.addr, align 8
  ret ptr %0
}

; Function Attrs: mustprogress nounwind uwtable
define linkonce_odr dso_local noundef nonnull align 8 dereferenceable(8) ptr @_ZNKSt8__detail9_IdentityclIRKPN4node9DataQueue20BackpressureListenerEEEOT_S9_(ptr noundef nonnull align 1 dereferenceable(1) %this, ptr noundef nonnull align 8 dereferenceable(8) %__x) #4 comdat align 2 {
entry:
  %this.addr = alloca ptr, align 8
  %__x.addr = alloca ptr, align 8
  store ptr %this, ptr %this.addr, align 8
  store ptr %__x, ptr %__x.addr, align 8
  %0 = load ptr, ptr %__x.addr, align 8
  ret ptr %0
}

; Function Attrs: mustprogress nounwind uwtable
define linkonce_odr dso_local { ptr, i8 } @_ZNSt10_HashtableIPN4node9DataQueue20BackpressureListenerES3_SaIS3_ENSt8__detail9_IdentityESt8equal_toIS3_ESt4hashIS3_ENS5_18_Mod_range_hashingENS5_20_Default_ranged_hashENS5_20_Prime_rehash_policyENS5_17_Hashtable_traitsILb0ELb1ELb1EEEE9_M_insertIRKS3_NS5_10_AllocNodeISaINS5_10_Hash_nodeIS3_Lb0EEEEEEEESt4pairINS5_14_Node_iteratorIS3_Lb1ELb0EEEbEOT_RKT0_St17integral_constantIbLb1EE(ptr noundef nonnull align 8 dereferenceable(56) %this, ptr noundef nonnull align 8 dereferenceable(8) %__arg, ptr noundef nonnull align 8 dereferenceable(8) %__node_gen) #4 comdat align 2 {
entry:
  %retval = alloca %"struct.std::pair.584", align 8
  %this.addr = alloca ptr, align 8
  %__arg.addr = alloca ptr, align 8
  %__node_gen.addr = alloca ptr, align 8
  %ref.tmp = alloca %"struct.std::__detail::_Identity", align 1
  store ptr %this, ptr %this.addr, align 8
  store ptr %__arg, ptr %__arg.addr, align 8
  store ptr %__node_gen, ptr %__node_gen.addr, align 8
  %this1 = load ptr, ptr %this.addr, align 8
  %0 = load ptr, ptr %__arg.addr, align 8
  %call = call noundef nonnull align 8 dereferenceable(8) ptr @_ZNKSt8__detail9_IdentityclIRKPN4node9DataQueue20BackpressureListenerEEEOT_S9_(ptr noundef nonnull align 1 dereferenceable(1) %ref.tmp, ptr noundef nonnull align 8 dereferenceable(8) %0) #3
  %call2 = call noundef nonnull align 8 dereferenceable(8) ptr @_ZNSt10_HashtableIPN4node9DataQueue20BackpressureListenerES3_SaIS3_ENSt8__detail9_IdentityESt8equal_toIS3_ESt4hashIS3_ENS5_18_Mod_range_hashingENS5_20_Default_ranged_hashENS5_20_Prime_rehash_policyENS5_17_Hashtable_traitsILb0ELb1ELb1EEEE14_S_forward_keyERKS3_(ptr noundef nonnull align 8 dereferenceable(8) %call)
  %1 = load ptr, ptr %__arg.addr, align 8
  %2 = load ptr, ptr %__node_gen.addr, align 8
  %call3 = call { ptr, i8 } @_ZNSt10_HashtableIPN4node9DataQueue20BackpressureListenerES3_SaIS3_ENSt8__detail9_IdentityESt8equal_toIS3_ESt4hashIS3_ENS5_18_Mod_range_hashingENS5_20_Default_ranged_hashENS5_20_Prime_rehash_policyENS5_17_Hashtable_traitsILb0ELb1ELb1EEEE16_M_insert_uniqueIRKS3_SJ_NS5_10_AllocNodeISaINS5_10_Hash_nodeIS3_Lb0EEEEEEEESt4pairINS5_14_Node_iteratorIS3_Lb1ELb0EEEbEOT_OT0_RKT1_(ptr noundef nonnull align 8 dereferenceable(56) %this1, ptr noundef nonnull align 8 dereferenceable(8) %call2, ptr noundef nonnull align 8 dereferenceable(8) %1, ptr noundef nonnull align 8 dereferenceable(8) %2)
  %3 = getelementptr inbounds { ptr, i8 }, ptr %retval, i32 0, i32 0
  %4 = extractvalue { ptr, i8 } %call3, 0
  store ptr %4, ptr %3, align 8
  %5 = getelementptr inbounds { ptr, i8 }, ptr %retval, i32 0, i32 1
  %6 = extractvalue { ptr, i8 } %call3, 1
  store i8 %6, ptr %5, align 8
  %7 = load { ptr, i8 }, ptr %retval, align 8
  ret { ptr, i8 } %7
}

; Function Attrs: mustprogress nounwind uwtable
define linkonce_odr dso_local void @_ZNSt8__detail10_AllocNodeISaINS_10_Hash_nodeIPN4node9DataQueue20BackpressureListenerELb0EEEEEC2ERNS_16_Hashtable_allocIS7_EE(ptr noundef nonnull align 8 dereferenceable(8) %this, ptr noundef nonnull align 1 dereferenceable(1) %__h) unnamed_addr #4 comdat align 2 {
entry:
  %this.addr = alloca ptr, align 8
  %__h.addr = alloca ptr, align 8
  store ptr %this, ptr %this.addr, align 8
  store ptr %__h, ptr %__h.addr, align 8
  %this1 = load ptr, ptr %this.addr, align 8
  %_M_h = getelementptr inbounds %"struct.std::__detail::_AllocNode", ptr %this1, i32 0, i32 0
  %0 = load ptr, ptr %__h.addr, align 8
  store ptr %0, ptr %_M_h, align 8
  ret void
}

; Function Attrs: mustprogress nounwind uwtable
define linkonce_odr dso_local noundef nonnull align 8 dereferenceable(56) ptr @_ZNSt8__detail12_Insert_baseIPN4node9DataQueue20BackpressureListenerES4_SaIS4_ENS_9_IdentityESt8equal_toIS4_ESt4hashIS4_ENS_18_Mod_range_hashingENS_20_Default_ranged_hashENS_20_Prime_rehash_policyENS_17_Hashtable_traitsILb0ELb1ELb1EEEE20_M_conjure_hashtableEv(ptr noundef nonnull align 1 dereferenceable(1) %this) #4 comdat align 2 {
entry:
  %this.addr = alloca ptr, align 8
  store ptr %this, ptr %this.addr, align 8
  %this1 = load ptr, ptr %this.addr, align 8
  ret ptr %this1
}

; Function Attrs: mustprogress nounwind uwtable
define linkonce_odr dso_local { ptr, i8 } @_ZNSt8__detail12_Insert_baseIPN4node9DataQueue20BackpressureListenerES4_SaIS4_ENS_9_IdentityESt8equal_toIS4_ESt4hashIS4_ENS_18_Mod_range_hashingENS_20_Default_ranged_hashENS_20_Prime_rehash_policyENS_17_Hashtable_traitsILb0ELb1ELb1EEEE6insertERKS4_(ptr noundef nonnull align 1 dereferenceable(1) %this, ptr noundef nonnull align 8 dereferenceable(8) %__v) #4 comdat align 2 {
entry:
  %retval = alloca %"struct.std::pair.584", align 8
  %this.addr = alloca ptr, align 8
  %__v.addr = alloca ptr, align 8
  %__h = alloca ptr, align 8
  %__node_gen = alloca %"struct.std::__detail::_AllocNode", align 8
  store ptr %this, ptr %this.addr, align 8
  store ptr %__v, ptr %__v.addr, align 8
  %this1 = load ptr, ptr %this.addr, align 8
  %call = call noundef nonnull align 8 dereferenceable(56) ptr @_ZNSt8__detail12_Insert_baseIPN4node9DataQueue20BackpressureListenerES4_SaIS4_ENS_9_IdentityESt8equal_toIS4_ESt4hashIS4_ENS_18_Mod_range_hashingENS_20_Default_ranged_hashENS_20_Prime_rehash_policyENS_17_Hashtable_traitsILb0ELb1ELb1EEEE20_M_conjure_hashtableEv(ptr noundef nonnull align 1 dereferenceable(1) %this1)
  store ptr %call, ptr %__h, align 8
  %0 = load ptr, ptr %__h, align 8
  call void @_ZNSt8__detail10_AllocNodeISaINS_10_Hash_nodeIPN4node9DataQueue20BackpressureListenerELb0EEEEEC2ERNS_16_Hashtable_allocIS7_EE(ptr noundef nonnull align 8 dereferenceable(8) %__node_gen, ptr noundef nonnull align 1 dereferenceable(1) %0)
  %1 = load ptr, ptr %__h, align 8
  %2 = load ptr, ptr %__v.addr, align 8
  %call2 = call { ptr, i8 } @_ZNSt10_HashtableIPN4node9DataQueue20BackpressureListenerES3_SaIS3_ENSt8__detail9_IdentityESt8equal_toIS3_ESt4hashIS3_ENS5_18_Mod_range_hashingENS5_20_Default_ranged_hashENS5_20_Prime_rehash_policyENS5_17_Hashtable_traitsILb0ELb1ELb1EEEE9_M_insertIRKS3_NS5_10_AllocNodeISaINS5_10_Hash_nodeIS3_Lb0EEEEEEEESt4pairINS5_14_Node_iteratorIS3_Lb1ELb0EEEbEOT_RKT0_St17integral_constantIbLb1EE(ptr noundef nonnull align 8 dereferenceable(56) %1, ptr noundef nonnull align 8 dereferenceable(8) %2, ptr noundef nonnull align 8 dereferenceable(8) %__node_gen)
  %3 = getelementptr inbounds { ptr, i8 }, ptr %retval, i32 0, i32 0
  %4 = extractvalue { ptr, i8 } %call2, 0
  store ptr %4, ptr %3, align 8
  %5 = getelementptr inbounds { ptr, i8 }, ptr %retval, i32 0, i32 1
  %6 = extractvalue { ptr, i8 } %call2, 1
  store i8 %6, ptr %5, align 8
  %7 = load { ptr, i8 }, ptr %retval, align 8
  ret { ptr, i8 } %7
}

; Function Attrs: mustprogress nounwind uwtable
define linkonce_odr dso_local { ptr, i8 } @_ZNSt13unordered_setIPN4node9DataQueue20BackpressureListenerESt4hashIS3_ESt8equal_toIS3_ESaIS3_EE6insertERKS3_(ptr noundef nonnull align 8 dereferenceable(56) %this, ptr noundef nonnull align 8 dereferenceable(8) %__x) #4 comdat align 2 {
entry:
  %retval = alloca %"struct.std::pair.584", align 8
  %this.addr = alloca ptr, align 8
  %__x.addr = alloca ptr, align 8
  store ptr %this, ptr %this.addr, align 8
  store ptr %__x, ptr %__x.addr, align 8
  %this1 = load ptr, ptr %this.addr, align 8
  %_M_h = getelementptr inbounds %"class.std::unordered_set.435", ptr %this1, i32 0, i32 0
  %0 = load ptr, ptr %__x.addr, align 8
  %call = call { ptr, i8 } @_ZNSt8__detail12_Insert_baseIPN4node9DataQueue20BackpressureListenerES4_SaIS4_ENS_9_IdentityESt8equal_toIS4_ESt4hashIS4_ENS_18_Mod_range_hashingENS_20_Default_ranged_hashENS_20_Prime_rehash_policyENS_17_Hashtable_traitsILb0ELb1ELb1EEEE6insertERKS4_(ptr noundef nonnull align 1 dereferenceable(1) %_M_h, ptr noundef nonnull align 8 dereferenceable(8) %0)
  %1 = getelementptr inbounds { ptr, i8 }, ptr %retval, i32 0, i32 0
  %2 = extractvalue { ptr, i8 } %call, 0
  store ptr %2, ptr %1, align 8
  %3 = getelementptr inbounds { ptr, i8 }, ptr %retval, i32 0, i32 1
  %4 = extractvalue { ptr, i8 } %call, 1
  store i8 %4, ptr %3, align 8
  %5 = load { ptr, i8 }, ptr %retval, align 8
  ret { ptr, i8 } %5
}

; Function Attrs: mustprogress nounwind uwtable
define internal void @_ZN4node12_GLOBAL__N_113DataQueueImpl23addBackpressureListenerEPNS_9DataQueue20BackpressureListenerE(ptr noundef nonnull align 8 dereferenceable(152) %this, ptr noundef %listener) unnamed_addr #4 align 2 {
entry:
  %this.addr = alloca ptr, align 8
  %listener.addr = alloca ptr, align 8
  %coerce = alloca %"struct.std::pair.584", align 8
  store ptr %this, ptr %this.addr, align 8
  store ptr %listener, ptr %listener.addr, align 8
  %this1 = load ptr, ptr %this.addr, align 8
  %idempotent_ = getelementptr inbounds %"class.node::(anonymous namespace)::DataQueueImpl", ptr %this1, i32 0, i32 3
  %0 = load i8, ptr %idempotent_, align 8
  %tobool = trunc i8 %0 to i1
  br i1 %tobool, label %if.then, label %if.end

if.then:                                          ; preds = %entry
  br label %return

if.end:                                           ; preds = %entry
  %backpressure_listeners_ = getelementptr inbounds %"class.node::(anonymous namespace)::DataQueueImpl", ptr %this1, i32 0, i32 8
  %call = call { ptr, i8 } @_ZNSt13unordered_setIPN4node9DataQueue20BackpressureListenerESt4hashIS3_ESt8equal_toIS3_ESaIS3_EE6insertERKS3_(ptr noundef nonnull align 8 dereferenceable(56) %backpressure_listeners_, ptr noundef nonnull align 8 dereferenceable(8) %listener.addr)
  %1 = getelementptr inbounds { ptr, i8 }, ptr %coerce, i32 0, i32 0
  %2 = extractvalue { ptr, i8 } %call, 0
  store ptr %2, ptr %1, align 8
  %3 = getelementptr inbounds { ptr, i8 }, ptr %coerce, i32 0, i32 1
  %4 = extractvalue { ptr, i8 } %call, 1
  store i8 %4, ptr %3, align 8
  br label %return

return:                                           ; preds = %if.end, %if.then
  ret void
}