; Function Attrs: mustprogress nounwind uwtable
define internal void @_ZN4node12_GLOBAL__N_113DataQueueImpl23addBackpressureListenerEPNS_9DataQueue20BackpressureListenerE(ptr noundef nonnull align 8 dereferenceable(152) %this, ptr noundef %listener) unnamed_addr #3 align 2 {
entry:
  %__node_gen.i.i = alloca %"struct.std::__detail::_AllocNode", align 8
  %listener.addr = alloca ptr, align 8
  store ptr %listener, ptr %listener.addr, align 8
  %idempotent_ = getelementptr inbounds i8, ptr %this, i64 48
  %0 = load i8, ptr %idempotent_, align 8
  %1 = and i8 %0, 1
  %tobool.not = icmp eq i8 %1, 0
  br i1 %tobool.not, label %if.end, label %return

if.end:                                           ; preds = %entry
  %backpressure_listeners_ = getelementptr inbounds i8, ptr %this, i64 96
  call void @llvm.lifetime.start.p0(i64 8, ptr nonnull %__node_gen.i.i)
  store ptr %backpressure_listeners_, ptr %__node_gen.i.i, align 8
  %call3.i.i.i = call { ptr, i8 } @_ZNSt10_HashtableIPN4node9DataQueue20BackpressureListenerES3_SaIS3_ENSt8__detail9_IdentityESt8equal_toIS3_ESt4hashIS3_ENS5_18_Mod_range_hashingENS5_20_Default_ranged_hashENS5_20_Prime_rehash_policyENS5_17_Hashtable_traitsILb0ELb1ELb1EEEE16_M_insert_uniqueIRKS3_SJ_NS5_10_AllocNodeISaINS5_10_Hash_nodeIS3_Lb0EEEEEEEESt4pairINS5_14_Node_iteratorIS3_Lb1ELb0EEEbEOT_OT0_RKT1_(ptr noundef nonnull align 8 dereferenceable(56) %backpressure_listeners_, ptr noundef nonnull align 8 dereferenceable(8) %listener.addr, ptr noundef nonnull align 8 dereferenceable(8) %listener.addr, ptr noundef nonnull align 8 dereferenceable(8) %__node_gen.i.i)
  call void @llvm.lifetime.end.p0(i64 8, ptr nonnull %__node_gen.i.i)
  br label %return

return:                                           ; preds = %entry, %if.end
  ret void
}